target datalayout = "e-m:e-p270:32:32-p271:32:32-p272:64:64-i64:64-i128:128-f80:128-n8:16:32:64-S128"
target triple = "x86_64-pc-linux-gnu"

%struct.pmix_server_globals_t = type { %struct.pmix_list_t, %struct.pmix_pointer_array_t, %struct.pmix_list_t, %struct.pmix_list_t, %struct.pmix_list_t, %struct.pmix_list_t, ptr, %struct.pmix_list_t, ptr, %struct.pmix_list_t, %struct.pmix_list_t, %struct.pmix_list_t, i64, i8, ptr, ptr, i8, i32, i32, i32, i32, i32, i32, i32, i32, i32, i32, i32, i32, i32, i32, i32, i32, i32, i32 }
%struct.pmix_pointer_array_t = type { %struct.pmix_object_t, i32, i32, i32, i32, i32, ptr, ptr }
%struct.pmix_object_t = type { %union.pthread_mutex_t, ptr, i32, %struct.pmix_tma }
%union.pthread_mutex_t = type { %struct.__pthread_mutex_s }
%struct.__pthread_mutex_s = type { i32, i32, i32, i32, i32, i16, i16, %struct.__pthread_internal_list }
%struct.__pthread_internal_list = type { ptr, ptr }
%struct.pmix_tma = type { ptr, ptr, ptr, ptr, ptr, ptr, ptr, ptr }
%struct.pmix_list_t = type { %struct.pmix_object_t, %struct.pmix_list_item_t, i64 }
%struct.pmix_list_item_t = type { %struct.pmix_object_t, ptr, ptr, i32 }
%struct.dirent = type { i64, i64, i16, i8, [256 x i8] }

@.str = private unnamed_addr constant [19 x i8] c"help-pmix-util.txt\00", align 1
@.str.2 = private unnamed_addr constant [2 x i8] c".\00", align 1
@.str.3 = private unnamed_addr constant [3 x i8] c"..\00", align 1
@.str.4 = private unnamed_addr constant [13 x i8] c"unlink-error\00", align 1
@pmix_server_globals = external global %struct.pmix_server_globals_t, align 8

; Function Attrs: nounwind uwtable
define i32 @pmix_os_dirpath_destroy(ptr noundef %0, i1 noundef zeroext %1, ptr noundef %2) #0 {
  %4 = alloca i32, align 4
  %5 = alloca ptr, align 8
  %6 = alloca i8, align 1
  %7 = alloca ptr, align 8
  %8 = alloca i32, align 4
  %9 = alloca i32, align 4
  %10 = alloca ptr, align 8
  %11 = alloca ptr, align 8
  %12 = alloca ptr, align 8
  %13 = alloca i32, align 4
  store ptr %0, ptr %5, align 8, !tbaa !3
  %14 = zext i1 %1 to i8
  store i8 %14, ptr %6, align 1, !tbaa !15
  store ptr %2, ptr %7, align 8, !tbaa !17
  call void @llvm.lifetime.start.p0(i64 4, ptr %8) #7
  call void @llvm.lifetime.start.p0(i64 4, ptr %9) #7
  store i32 0, ptr %9, align 4, !tbaa !8
  call void @llvm.lifetime.start.p0(i64 8, ptr %10) #7
  call void @llvm.lifetime.start.p0(i64 8, ptr %11) #7
  call void @llvm.lifetime.start.p0(i64 8, ptr %12) #7
  %15 = load ptr, ptr %5, align 8, !tbaa !3
  %16 = icmp eq ptr null, %15
  br i1 %16, label %17, label %18

17:                                               ; preds = %3
  store i32 -1, ptr %4, align 4
  store i32 1, ptr %13, align 4
  br label %128

18:                                               ; preds = %3
  %19 = load ptr, ptr %5, align 8, !tbaa !3
  %20 = call ptr @opendir(ptr noundef %19)
  store ptr %20, ptr %10, align 8, !tbaa !18
  %21 = load ptr, ptr %10, align 8, !tbaa !18
  %22 = icmp eq ptr null, %21
  br i1 %22, label %23, label %24

23:                                               ; preds = %18
  store i32 -1, ptr %4, align 4
  store i32 1, ptr %13, align 4
  br label %128

24:                                               ; preds = %18
  br label %25

25:                                               ; preds = %111, %103, %77, %52, %41, %24
  %26 = load ptr, ptr %10, align 8, !tbaa !18
  %27 = call ptr @readdir(ptr noundef %26)
  store ptr %27, ptr %11, align 8, !tbaa !20
  %28 = icmp ne ptr null, %27
  br i1 %28, label %29, label %112

29:                                               ; preds = %25
  %30 = load ptr, ptr %11, align 8, !tbaa !20
  %31 = getelementptr inbounds nuw %struct.dirent, ptr %30, i32 0, i32 4
  %32 = getelementptr inbounds [256 x i8], ptr %31, i64 0, i64 0
  %33 = call i32 @strcmp(ptr noundef %32, ptr noundef @.str.2) #9
  %34 = icmp eq i32 0, %33
  br i1 %34, label %41, label %35

35:                                               ; preds = %29
  %36 = load ptr, ptr %11, align 8, !tbaa !20
  %37 = getelementptr inbounds nuw %struct.dirent, ptr %36, i32 0, i32 4
  %38 = getelementptr inbounds [256 x i8], ptr %37, i64 0, i64 0
  %39 = call i32 @strcmp(ptr noundef %38, ptr noundef @.str.3) #9
  %40 = icmp eq i32 0, %39
  br i1 %40, label %41, label %42

41:                                               ; preds = %35, %29
  br label %25, !llvm.loop !22

42:                                               ; preds = %35
  %43 = load ptr, ptr %7, align 8, !tbaa !17
  %44 = icmp ne ptr null, %43
  br i1 %44, label %45, label %54

45:                                               ; preds = %42
  %46 = load ptr, ptr %7, align 8, !tbaa !17
  %47 = load ptr, ptr %5, align 8, !tbaa !3
  %48 = load ptr, ptr %11, align 8, !tbaa !20
  %49 = getelementptr inbounds nuw %struct.dirent, ptr %48, i32 0, i32 4
  %50 = getelementptr inbounds [256 x i8], ptr %49, i64 0, i64 0
  %51 = call zeroext i1 %46(ptr noundef %47, ptr noundef %50)
  br i1 %51, label %53, label %52

52:                                               ; preds = %45
  br label %25, !llvm.loop !22

53:                                               ; preds = %45
  br label %54

54:                                               ; preds = %53, %42
  %55 = load ptr, ptr %5, align 8, !tbaa !3
  %56 = load ptr, ptr %11, align 8, !tbaa !20
  %57 = getelementptr inbounds nuw %struct.dirent, ptr %56, i32 0, i32 4
  %58 = getelementptr inbounds [256 x i8], ptr %57, i64 0, i64 0
  %59 = call noalias ptr (i32, ...) @pmix_os_path(i32 noundef 0, ptr noundef %55, ptr noundef %58, ptr noundef null)
  store ptr %59, ptr %12, align 8, !tbaa !3
  %60 = load ptr, ptr %12, align 8, !tbaa !3
  %61 = call i32 @unlink(ptr noundef %60) #7
  store i32 %61, ptr %8, align 4, !tbaa !8
  %62 = load i32, ptr %8, align 4, !tbaa !8
  %63 = icmp sgt i32 0, %62
  br i1 %63, label %64, label %111

64:                                               ; preds = %54
  %65 = call ptr @__errno_location() #8
  %66 = load i32, ptr %65, align 4, !tbaa !8
  store i32 %66, ptr %8, align 4, !tbaa !8
  %67 = load i32, ptr %8, align 4, !tbaa !8
  %68 = icmp eq i32 1, %67
  br i1 %68, label %72, label %69

69:                                               ; preds = %64
  %70 = load i32, ptr %8, align 4, !tbaa !8
  %71 = icmp eq i32 21, %70
  br i1 %71, label %72, label %100

72:                                               ; preds = %69, %64
  %73 = load ptr, ptr %12, align 8, !tbaa !3
  %74 = call i32 @rmdir(ptr noundef %73) #7
  store i32 %74, ptr %8, align 4, !tbaa !8
  %75 = load i32, ptr %8, align 4, !tbaa !8
  %76 = icmp eq i32 0, %75
  br i1 %76, label %77, label %78

77:                                               ; preds = %72
  br label %25, !llvm.loop !22

78:                                               ; preds = %72
  %79 = call ptr @__errno_location() #8
  %80 = load i32, ptr %79, align 4, !tbaa !8
  %81 = icmp eq i32 39, %80
  br i1 %81, label %82, label %99

82:                                               ; preds = %78
  %83 = load i8, ptr %6, align 1, !tbaa !15, !range !23, !noundef !24
  %84 = trunc i8 %83 to i1
  br i1 %84, label %85, label %99

85:                                               ; preds = %82
  %86 = load ptr, ptr %12, align 8, !tbaa !3
  %87 = load i8, ptr %6, align 1, !tbaa !15, !range !23, !noundef !24
  %88 = trunc i8 %87 to i1
  %89 = load ptr, ptr %7, align 8, !tbaa !17
  %90 = call i32 @pmix_os_dirpath_destroy(ptr noundef %86, i1 noundef zeroext %88, ptr noundef %89)
  store i32 %90, ptr %8, align 4, !tbaa !8
  %91 = load ptr, ptr %12, align 8, !tbaa !3
  call void @free(ptr noundef %91) #7
  %92 = load i32, ptr %8, align 4, !tbaa !8
  %93 = icmp ne i32 0, %92
  br i1 %93, label %94, label %98

94:                                               ; preds = %85
  %95 = load i32, ptr %8, align 4, !tbaa !8
  store i32 %95, ptr %9, align 4, !tbaa !8
  %96 = load ptr, ptr %10, align 8, !tbaa !18
  %97 = call i32 @closedir(ptr noundef %96)
  br label %115

98:                                               ; preds = %85
  br label %99

99:                                               ; preds = %98, %82, %78
  br label %110

100:                                              ; preds = %69
  %101 = load i32, ptr %8, align 4, !tbaa !8
  %102 = icmp eq i32 16, %101
  br i1 %102, label %103, label %104

103:                                              ; preds = %100
  store i32 -1, ptr %9, align 4, !tbaa !8
  br label %25, !llvm.loop !22

104:                                              ; preds = %100
  %105 = load ptr, ptr %12, align 8, !tbaa !3
  %106 = load i32, ptr %8, align 4, !tbaa !8
  %107 = call ptr @strerror(i32 noundef %106) #7
  %108 = call i32 (ptr, ptr, i32, ...) @pmix_show_help(ptr noundef @.str, ptr noundef @.str.4, i32 noundef 1, ptr noundef %105, ptr noundef %107)
  %109 = load ptr, ptr %12, align 8, !tbaa !3
  call void @free(ptr noundef %109) #7
  store i32 -1, ptr %9, align 4, !tbaa !8
  br label %112

110:                                              ; preds = %99
  br label %111

111:                                              ; preds = %110, %54
  br label %25, !llvm.loop !22

112:                                              ; preds = %104, %25
  %113 = load ptr, ptr %10, align 8, !tbaa !18
  %114 = call i32 @closedir(ptr noundef %113)
  br label %115

115:                                              ; preds = %112, %94
  %116 = load ptr, ptr getelementptr inbounds nuw (%struct.pmix_server_globals_t, ptr @pmix_server_globals, i32 0, i32 15), align 8, !tbaa !25
  %117 = icmp eq ptr null, %116
  br i1 %117, label %123, label %118

118:                                              ; preds = %115
  %119 = load ptr, ptr %5, align 8, !tbaa !3
  %120 = load ptr, ptr getelementptr inbounds nuw (%struct.pmix_server_globals_t, ptr @pmix_server_globals, i32 0, i32 15), align 8, !tbaa !25
  %121 = call i32 @strcmp(ptr noundef %119, ptr noundef %120) #9
  %122 = icmp ne i32 0, %121
  br i1 %122, label %123, label %126

123:                                              ; preds = %118, %115
  %124 = load ptr, ptr %5, align 8, !tbaa !3
  %125 = call i32 @rmdir(ptr noundef %124) #7
  br label %126

126:                                              ; preds = %123, %118
  %127 = load i32, ptr %9, align 4, !tbaa !8
  store i32 %127, ptr %4, align 4
  store i32 1, ptr %13, align 4
  br label %128

128:                                              ; preds = %126, %23, %17
  call void @llvm.lifetime.end.p0(i64 8, ptr %12) #7
  call void @llvm.lifetime.end.p0(i64 8, ptr %11) #7
  call void @llvm.lifetime.end.p0(i64 8, ptr %10) #7
  call void @llvm.lifetime.end.p0(i64 4, ptr %9) #7
  call void @llvm.lifetime.end.p0(i64 4, ptr %8) #7
  %129 = load i32, ptr %4, align 4
  ret i32 %129
}